; Function Attrs: mustprogress uwtable
define dso_local void @_ZN20cmFindProgramCommand11FindProgramB5cxx11Ev(ptr dead_on_unwind noalias nonnull writable sret(%"class.std::__cxx11::basic_string") align 8 %0, ptr noundef nonnull align 8 dereferenceable(600) %1) local_unnamed_addr #3 align 2 personality ptr @__gxx_personality_v0 {
  %3 = alloca %"class.std::__cxx11::basic_string", align 8
  %4 = alloca %"class.std::__cxx11::basic_string", align 8
  %5 = alloca %"class.std::__cxx11::basic_string", align 8
  tail call void @_ZNSt7__cxx1112basic_stringIcSt11char_traitsIcESaIcEEC1Ev(ptr noundef nonnull align 8 dereferenceable(32) %0) #15
  %6 = getelementptr inbounds i8, ptr %1, i64 371
  %7 = load i8, ptr %6, align 1
  %8 = and i8 %7, 1
  %.not = icmp eq i8 %8, 0
  br i1 %.not, label %9, label %13

9:                                                ; preds = %2
  %10 = getelementptr inbounds i8, ptr %1, i64 372
  %11 = load i8, ptr %10, align 4
  %12 = and i8 %11, 1
  %.not3 = icmp eq i8 %12, 0
  br i1 %.not3, label %18, label %13

13:                                               ; preds = %9, %2
  invoke void @_ZN20cmFindProgramCommand13FindAppBundleB5cxx11Ev(ptr dead_on_unwind nonnull writable sret(%"class.std::__cxx11::basic_string") align 8 %3, ptr noundef nonnull align 8 dereferenceable(600) %1)
          to label %14 unwind label %16

14:                                               ; preds = %13
  %15 = call noundef nonnull align 8 dereferenceable(32) ptr @_ZNSt7__cxx1112basic_stringIcSt11char_traitsIcESaIcEEaSEOS4_(ptr noundef nonnull align 8 dereferenceable(32) %0, ptr noundef nonnull align 8 dereferenceable(32) %3) #15
  call void @_ZNSt7__cxx1112basic_stringIcSt11char_traitsIcESaIcEED1Ev(ptr noundef nonnull align 8 dereferenceable(32) %3) #15
  br label %18

16:                                               ; preds = %29, %28, %37, %13
  %17 = landingpad { ptr, i32 }
          cleanup
  call void @_ZNSt7__cxx1112basic_stringIcSt11char_traitsIcESaIcEED1Ev(ptr noundef nonnull align 8 dereferenceable(32) %0) #15
  resume { ptr, i32 } %17

18:                                               ; preds = %14, %9
  %19 = call noundef zeroext i1 @_ZNKSt7__cxx1112basic_stringIcSt11char_traitsIcESaIcEE5emptyEv(ptr noundef nonnull align 8 dereferenceable(32) %0) #15
  br i1 %19, label %20, label %31

20:                                               ; preds = %18
  %21 = getelementptr inbounds i8, ptr %1, i64 372
  %22 = load i8, ptr %21, align 4
  %23 = and i8 %22, 1
  %.not4 = icmp eq i8 %23, 0
  br i1 %.not4, label %24, label %31

24:                                               ; preds = %20
  %25 = getelementptr inbounds i8, ptr %1, i64 520
  %26 = load i8, ptr %25, align 8, !noalias !7
  %27 = and i8 %26, 1
  %.not.i = icmp eq i8 %27, 0
  br i1 %.not.i, label %29, label %28

28:                                               ; preds = %24
  invoke void @_ZN20cmFindProgramCommand28FindNormalProgramNamesPerDirB5cxx11Ev(ptr dead_on_unwind nonnull writable sret(%"class.std::__cxx11::basic_string") align 8 %4, ptr noundef nonnull align 8 dereferenceable(600) %1)
          to label %_ZN20cmFindProgramCommand17FindNormalProgramB5cxx11Ev.exit unwind label %16

29:                                               ; preds = %24
  invoke void @_ZN20cmFindProgramCommand28FindNormalProgramDirsPerNameB5cxx11Ev(ptr dead_on_unwind nonnull writable sret(%"class.std::__cxx11::basic_string") align 8 %4, ptr noundef nonnull align 8 dereferenceable(600) %1)
          to label %_ZN20cmFindProgramCommand17FindNormalProgramB5cxx11Ev.exit unwind label %16

_ZN20cmFindProgramCommand17FindNormalProgramB5cxx11Ev.exit: ; preds = %28, %29
  %30 = call noundef nonnull align 8 dereferenceable(32) ptr @_ZNSt7__cxx1112basic_stringIcSt11char_traitsIcESaIcEEaSEOS4_(ptr noundef nonnull align 8 dereferenceable(32) %0, ptr noundef nonnull align 8 dereferenceable(32) %4) #15
  call void @_ZNSt7__cxx1112basic_stringIcSt11char_traitsIcESaIcEED1Ev(ptr noundef nonnull align 8 dereferenceable(32) %4) #15
  br label %31

31:                                               ; preds = %_ZN20cmFindProgramCommand17FindNormalProgramB5cxx11Ev.exit, %20, %18
  %32 = call noundef zeroext i1 @_ZNKSt7__cxx1112basic_stringIcSt11char_traitsIcESaIcEE5emptyEv(ptr noundef nonnull align 8 dereferenceable(32) %0) #15
  br i1 %32, label %33, label %40

33:                                               ; preds = %31
  %34 = getelementptr inbounds i8, ptr %1, i64 373
  %35 = load i8, ptr %34, align 1
  %36 = and i8 %35, 1
  %.not5 = icmp eq i8 %36, 0
  br i1 %.not5, label %40, label %37

37:                                               ; preds = %33
  invoke void @_ZN20cmFindProgramCommand13FindAppBundleB5cxx11Ev(ptr dead_on_unwind nonnull writable sret(%"class.std::__cxx11::basic_string") align 8 %5, ptr noundef nonnull align 8 dereferenceable(600) %1)
          to label %38 unwind label %16

38:                                               ; preds = %37
  %39 = call noundef nonnull align 8 dereferenceable(32) ptr @_ZNSt7__cxx1112basic_stringIcSt11char_traitsIcESaIcEEaSEOS4_(ptr noundef nonnull align 8 dereferenceable(32) %0, ptr noundef nonnull align 8 dereferenceable(32) %5) #15
  call void @_ZNSt7__cxx1112basic_stringIcSt11char_traitsIcESaIcEED1Ev(ptr noundef nonnull align 8 dereferenceable(32) %5) #15
  br label %40

40:                                               ; preds = %31, %33, %38
  ret void
}